target datalayout = "e-m:e-p270:32:32-p271:32:32-p272:64:64-i64:64-i128:128-f80:128-n8:16:32:64-S128"
target triple = "x86_64-pc-linux-gnu"

%"struct.nanobind::detail::type_data" = type { i32, i32, ptr, ptr, ptr, ptr, ptr, ptr, ptr, ptr, %union.anon, ptr, ptr }
%union.anon = type { %struct.anon }
%struct.anon = type { ptr, ptr }

@_ZN8nanobind6detail9internalsE = external hidden global ptr, align 8

; Function Attrs: mustprogress nounwind uwtable
define noundef ptr @_ZN8nanobind6detail14nb_type_lookupEPKSt9type_info(ptr noundef %0) #6 personality ptr @__gxx_personality_v0 {
  %2 = alloca ptr, align 8
  %3 = alloca ptr, align 8
  %4 = alloca ptr, align 8
  %5 = alloca i32, align 4
  store ptr %0, ptr %3, align 8
  call void @llvm.lifetime.start.p0(i64 8, ptr %4) #20
  %6 = load ptr, ptr @_ZN8nanobind6detail9internalsE, align 8
  %7 = load ptr, ptr %3, align 8
  %8 = invoke noundef ptr @_ZN8nanobind6detail11nb_type_c2pEPNS0_12nb_internalsEPKSt9type_info(ptr noundef %6, ptr noundef %7)
          to label %9 unwind label %19

9:                                                ; preds = %1
  store ptr %8, ptr %4, align 8
  %10 = load ptr, ptr %4, align 8
  %11 = icmp ne ptr %10, null
  br i1 %11, label %12, label %16

12:                                               ; preds = %9
  %13 = load ptr, ptr %4, align 8
  %14 = getelementptr inbounds nuw %"struct.nanobind::detail::type_data", ptr %13, i32 0, i32 4
  %15 = load ptr, ptr %14, align 8
  store ptr %15, ptr %2, align 8
  store i32 1, ptr %5, align 4
  br label %17

16:                                               ; preds = %9
  store ptr null, ptr %2, align 8
  store i32 1, ptr %5, align 4
  br label %17

17:                                               ; preds = %16, %12
  call void @llvm.lifetime.end.p0(i64 8, ptr %4) #20
  %18 = load ptr, ptr %2, align 8
  ret ptr %18

19:                                               ; preds = %1
  %20 = landingpad { ptr, i32 }
          catch ptr null
  %21 = extractvalue { ptr, i32 } %20, 0
  call void @__clang_call_terminate(ptr %21) #22
  unreachable
}