; Function Attrs: mustprogress nounwind uwtable
define noundef ptr @_ZN8nanobind6detail14nb_type_lookupEPKSt9type_info(ptr noundef %0) local_unnamed_addr #5 personality ptr @__gxx_personality_v0 {
  %2 = load ptr, ptr @_ZN8nanobind6detail9internalsE, align 8
  %3 = invoke noundef ptr @_ZN8nanobind6detail11nb_type_c2pEPNS0_12nb_internalsEPKSt9type_info(ptr noundef %2, ptr noundef %0)
          to label %4 unwind label %9

4:                                                ; preds = %1
  %.not = icmp eq ptr %3, null
  br i1 %.not, label %8, label %5

5:                                                ; preds = %4
  %6 = getelementptr inbounds nuw i8, ptr %3, i64 24
  %7 = load ptr, ptr %6, align 8
  br label %8

8:                                                ; preds = %4, %5
  %.0 = phi ptr [ %7, %5 ], [ null, %4 ]
  ret ptr %.0

9:                                                ; preds = %1
  %10 = landingpad { ptr, i32 }
          catch ptr null
  %11 = extractvalue { ptr, i32 } %10, 0
  tail call void @__clang_call_terminate(ptr %11) #30
  unreachable
}